; Function Attrs: nounwind uwtable
define internal noalias noundef ptr @_io__IOBase_fileno(ptr readnone captures(none) %0, ptr noundef readonly captures(none) %1, ptr readnone captures(none) %2, i64 noundef %3, ptr noundef readonly %4) #0 {
  %.not = icmp eq i64 %3, 0
  br i1 %.not, label %6, label %9

6:                                                ; preds = %5
  %.not6 = icmp eq ptr %4, null
  br i1 %.not6, label %11, label %7

7:                                                ; preds = %6
  %8 = getelementptr i8, ptr %4, i64 16
  %.val = load i64, ptr %8, align 8, !tbaa !44
  %.not7 = icmp eq i64 %.val, 0
  br i1 %.not7, label %11, label %9

9:                                                ; preds = %7, %5
  %10 = load ptr, ptr @PyExc_TypeError, align 8, !tbaa !4
  tail call void @PyErr_SetString(ptr noundef %10, ptr noundef nonnull @.str.30) #6
  br label %15

11:                                               ; preds = %7, %6
  %12 = getelementptr i8, ptr %1, i64 888
  %.val8 = load ptr, ptr %12, align 8, !tbaa !32
  %13 = getelementptr i8, ptr %.val8, i64 32
  %.val8.val = load ptr, ptr %13, align 8, !tbaa !41
  %14 = getelementptr i8, ptr %.val8.val, i64 8
  %.val8.val.val = load ptr, ptr %14, align 8, !tbaa !13
  tail call void @PyErr_SetString(ptr noundef %.val8.val.val, ptr noundef nonnull @.str.20) #6
  br label %15

15:                                               ; preds = %11, %9
  ret ptr null
}